; Function Attrs: null_pointer_is_valid sspstrong uwtable
define internal range(i32 -268435456, 268435456) i32 @dissect_ResourceCoordinationTransferContainer_PDU(ptr noundef %0, ptr noundef %1, ptr noundef %2, ptr readnone captures(none) %3) #0 {
  %5 = alloca ptr, align 8
  %6 = alloca %struct._asn1_ctx_t, align 8
  call void @llvm.lifetime.start.p0(i64 208, ptr nonnull %6) #6
  call void @asn1_ctx_init(ptr noundef nonnull %6, i32 noundef 1, i1 noundef zeroext true, ptr noundef %1)
  %7 = load i32, ptr @hf_f1ap_ResourceCoordinationTransferContainer_PDU, align 4
  call void @llvm.lifetime.start.p0(i64 8, ptr nonnull %5) #6
  store ptr null, ptr %5, align 8
  %8 = call i32 @dissect_per_octet_string(ptr noundef %0, i32 noundef 0, ptr noundef nonnull %6, ptr noundef %2, i32 noundef %7, i32 noundef -1, i32 noundef -1, i1 noundef zeroext false, ptr noundef nonnull %5)
  %9 = load ptr, ptr %5, align 8
  %.not.i = icmp eq ptr %9, null
  br i1 %.not.i, label %dissect_f1ap_ResourceCoordinationTransferContainer.exit, label %10

10:                                               ; preds = %4
  %11 = getelementptr inbounds nuw i8, ptr %6, i64 16
  %12 = load ptr, ptr %11, align 8
  %13 = call ptr @wmem_file_scope()
  %14 = load i32, ptr @proto_f1ap, align 4
  %15 = call ptr @p_get_proto_data(ptr noundef %13, ptr noundef %12, i32 noundef %14, i32 noundef 0)
  %.not.i.i = icmp eq ptr %15, null
  br i1 %.not.i.i, label %16, label %f1ap_get_private_data.exit.i

16:                                               ; preds = %10
  %17 = call ptr @wmem_file_scope()
  %18 = call noalias dereferenceable_or_null(48) ptr @wmem_alloc0(ptr noundef %17, i64 noundef 48) #7
  %19 = getelementptr inbounds nuw i8, ptr %18, i64 28
  store i32 -1, ptr %19, align 4
  %20 = getelementptr inbounds nuw i8, ptr %18, i64 32
  store i32 1, ptr %20, align 8
  %21 = call ptr @wmem_file_scope()
  %22 = load i32, ptr @proto_f1ap, align 4
  call void @p_add_proto_data(ptr noundef %21, ptr noundef %12, i32 noundef %22, i32 noundef 0, ptr noundef %18)
  br label %f1ap_get_private_data.exit.i

f1ap_get_private_data.exit.i:                     ; preds = %16, %10
  %.0.i.i = phi ptr [ %15, %10 ], [ %18, %16 ]
  %23 = getelementptr inbounds nuw i8, ptr %6, i64 24
  %24 = load ptr, ptr %23, align 8
  %25 = load i32, ptr @ett_f1ap_ResourceCoordinationTransferContainer, align 4
  %26 = call ptr @proto_item_add_subtree(ptr noundef %24, i32 noundef %25)
  %27 = load i32, ptr %.0.i.i, align 8
  switch i32 %27, label %dissect_f1ap_ResourceCoordinationTransferContainer.exit [
    i32 0, label %28
    i32 1, label %39
  ]

28:                                               ; preds = %f1ap_get_private_data.exit.i
  %29 = getelementptr inbounds nuw i8, ptr %.0.i.i, i64 4
  %30 = load i32, ptr %29, align 4
  switch i32 %30, label %dissect_f1ap_ResourceCoordinationTransferContainer.exit [
    i32 5, label %31
    i32 7, label %31
    i32 8, label %35
  ]

31:                                               ; preds = %28, %28
  %32 = load ptr, ptr %5, align 8
  %33 = load ptr, ptr %11, align 8
  %34 = call i32 @dissect_x2ap_MeNBResourceCoordinationInformation_PDU(ptr noundef %32, ptr noundef %33, ptr noundef %26, ptr noundef null)
  br label %dissect_f1ap_ResourceCoordinationTransferContainer.exit

35:                                               ; preds = %28
  %36 = load ptr, ptr %5, align 8
  %37 = load ptr, ptr %11, align 8
  %38 = call i32 @dissect_x2ap_SgNBResourceCoordinationInformation_PDU(ptr noundef %36, ptr noundef %37, ptr noundef %26, ptr noundef null)
  br label %dissect_f1ap_ResourceCoordinationTransferContainer.exit

39:                                               ; preds = %f1ap_get_private_data.exit.i
  %40 = getelementptr inbounds nuw i8, ptr %.0.i.i, i64 4
  %41 = load i32, ptr %40, align 4
  switch i32 %41, label %dissect_f1ap_ResourceCoordinationTransferContainer.exit [
    i32 5, label %42
    i32 7, label %42
    i32 8, label %46
  ]

42:                                               ; preds = %39, %39
  %43 = load ptr, ptr %5, align 8
  %44 = load ptr, ptr %11, align 8
  %45 = call i32 @dissect_x2ap_SgNBResourceCoordinationInformation_PDU(ptr noundef %43, ptr noundef %44, ptr noundef %26, ptr noundef null)
  br label %dissect_f1ap_ResourceCoordinationTransferContainer.exit

46:                                               ; preds = %39
  %47 = load ptr, ptr %5, align 8
  %48 = load ptr, ptr %11, align 8
  %49 = call i32 @dissect_x2ap_MeNBResourceCoordinationInformation_PDU(ptr noundef %47, ptr noundef %48, ptr noundef %26, ptr noundef null)
  br label %dissect_f1ap_ResourceCoordinationTransferContainer.exit

dissect_f1ap_ResourceCoordinationTransferContainer.exit: ; preds = %4, %f1ap_get_private_data.exit.i, %28, %31, %35, %39, %42, %46
  call void @llvm.lifetime.end.p0(i64 8, ptr nonnull %5) #6
  %50 = add i32 %8, 7
  %51 = ashr i32 %50, 3
  call void @llvm.lifetime.end.p0(i64 208, ptr nonnull %6) #6
  ret i32 %51
}